; Function Attrs: mustprogress uwtable
define void @_ZN2cv7GScalarC2EONS_7Scalar_IdEE(ptr noundef nonnull writeonly align 8 captures(none) dereferenceable(16) %0, ptr noundef nonnull readonly align 8 captures(none) dereferenceable(32) %1) unnamed_addr #3 align 2 personality ptr @__gxx_personality_v0 {
  %3 = alloca %"class.cv::util::variant", align 8
  %4 = tail call noalias noundef nonnull dereferenceable(184) ptr @_Znwm(i64 noundef 184) #17
  store i64 1, ptr %3, align 8, !tbaa !27
  %5 = getelementptr inbounds nuw i8, ptr %3, i64 8
  %6 = load double, ptr %1, align 8, !tbaa !29
  store double %6, ptr %5, align 8, !tbaa !29
  %7 = getelementptr inbounds nuw i8, ptr %1, i64 8
  %8 = load double, ptr %7, align 8, !tbaa !29
  %9 = getelementptr inbounds nuw i8, ptr %3, i64 16
  store double %8, ptr %9, align 8, !tbaa !29
  %10 = getelementptr inbounds nuw i8, ptr %1, i64 16
  %11 = load double, ptr %10, align 8, !tbaa !29
  %12 = getelementptr inbounds nuw i8, ptr %3, i64 24
  store double %11, ptr %12, align 8, !tbaa !29
  %13 = getelementptr inbounds nuw i8, ptr %1, i64 24
  %14 = load double, ptr %13, align 8, !tbaa !29
  %15 = getelementptr inbounds nuw i8, ptr %3, i64 32
  store double %14, ptr %15, align 8, !tbaa !29
  invoke void @_ZN2cv7GOriginC1ENS_6GShapeENS_4util7variantIJNS2_9monostateENS_7Scalar_IdEENS_6detail9VectorRefENS_3MatEEEE(ptr noundef nonnull align 8 dereferenceable(180) %4, i32 noundef 1, ptr noundef nonnull %3)
          to label %16 unwind label %39

16:                                               ; preds = %2
  store ptr %4, ptr %0, align 8, !tbaa !8
  %17 = getelementptr inbounds nuw i8, ptr %0, i64 8
  store ptr null, ptr %17, align 8, !tbaa !14
  %18 = invoke noalias noundef nonnull dereferenceable(24) ptr @_Znwm(i64 noundef 24) #17
          to label %29 unwind label %19

19:                                               ; preds = %16
  %20 = landingpad { ptr, i32 }
          catch ptr null
  %21 = extractvalue { ptr, i32 } %20, 0
  %22 = call ptr @__cxa_begin_catch(ptr %21) #18
  call void @_ZN2cv7GOriginD2Ev(ptr noundef nonnull align 8 dereferenceable(180) %4) #18
  call void @_ZdlPv(ptr noundef nonnull %4) #19
  invoke void @__cxa_rethrow() #20
          to label %28 unwind label %23

23:                                               ; preds = %19
  %24 = landingpad { ptr, i32 }
          cleanup
  invoke void @__cxa_end_catch()
          to label %.body unwind label %25

25:                                               ; preds = %23
  %26 = landingpad { ptr, i32 }
          catch ptr null
  %27 = extractvalue { ptr, i32 } %26, 0
  call void @__clang_call_terminate(ptr %27) #21
  unreachable

28:                                               ; preds = %19
  unreachable

29:                                               ; preds = %16
  %30 = getelementptr inbounds nuw i8, ptr %18, i64 8
  store i32 1, ptr %30, align 8, !tbaa !15
  %31 = getelementptr inbounds nuw i8, ptr %18, i64 12
  store i32 1, ptr %31, align 4, !tbaa !18
  store ptr getelementptr inbounds nuw inrange(-16, 40) (i8, ptr @_ZTVSt15_Sp_counted_ptrIPN2cv7GOriginELN9__gnu_cxx12_Lock_policyE2EE, i64 16), ptr %18, align 8, !tbaa !19
  %32 = getelementptr inbounds nuw i8, ptr %18, i64 16
  store ptr %4, ptr %32, align 8, !tbaa !21
  store ptr %18, ptr %17, align 8, !tbaa !14
  %33 = load i64, ptr %3, align 8, !tbaa !27
  %34 = getelementptr inbounds nuw [4 x ptr], ptr @constinit.2, i64 0, i64 %33
  %35 = load ptr, ptr %34, align 8, !tbaa !23
  invoke void %35(ptr noundef nonnull %5)
          to label %_ZN2cv4util7variantIJNS0_9monostateENS_7Scalar_IdEENS_6detail9VectorRefENS_3MatEEED2Ev.exit unwind label %36

36:                                               ; preds = %29
  %37 = landingpad { ptr, i32 }
          catch ptr null
  %38 = extractvalue { ptr, i32 } %37, 0
  call void @__clang_call_terminate(ptr %38) #21
  unreachable

_ZN2cv4util7variantIJNS0_9monostateENS_7Scalar_IdEENS_6detail9VectorRefENS_3MatEEED2Ev.exit: ; preds = %29
  ret void

39:                                               ; preds = %2
  %40 = landingpad { ptr, i32 }
          cleanup
  br label %.body

.body:                                            ; preds = %23, %39
  %.0.lpad-body = phi i1 [ true, %39 ], [ false, %23 ]
  %eh.lpad-body = phi { ptr, i32 } [ %40, %39 ], [ %24, %23 ]
  %41 = load i64, ptr %3, align 8, !tbaa !27
  %42 = getelementptr inbounds nuw [4 x ptr], ptr @constinit.2, i64 0, i64 %41
  %43 = load ptr, ptr %42, align 8, !tbaa !23
  invoke void %43(ptr noundef nonnull %5)
          to label %_ZN2cv4util7variantIJNS0_9monostateENS_7Scalar_IdEENS_6detail9VectorRefENS_3MatEEED2Ev.exit7 unwind label %44

44:                                               ; preds = %.body
  %45 = landingpad { ptr, i32 }
          catch ptr null
  %46 = extractvalue { ptr, i32 } %45, 0
  call void @__clang_call_terminate(ptr %46) #21
  unreachable

_ZN2cv4util7variantIJNS0_9monostateENS_7Scalar_IdEENS_6detail9VectorRefENS_3MatEEED2Ev.exit7: ; preds = %.body
  br i1 %.0.lpad-body, label %47, label %48

47:                                               ; preds = %_ZN2cv4util7variantIJNS0_9monostateENS_7Scalar_IdEENS_6detail9VectorRefENS_3MatEEED2Ev.exit7
  call void @_ZdlPv(ptr noundef nonnull %4) #19
  br label %48

48:                                               ; preds = %_ZN2cv4util7variantIJNS0_9monostateENS_7Scalar_IdEENS_6detail9VectorRefENS_3MatEEED2Ev.exit7, %47
  resume { ptr, i32 } %eh.lpad-body
}